; Function Attrs: mustprogress nofree norecurse nosync nounwind willreturn memory(read, argmem: readwrite, inaccessiblemem: none) uwtable
define void @_ZN10open_spiel5tarok10TarokState23StartTricksPlayingPhaseEv(ptr noundef nonnull align 8 captures(none) dereferenceable(280) initializes((84, 92)) %0) local_unnamed_addr #16 align 2 {
  %2 = getelementptr inbounds nuw i8, ptr %0, i64 84
  store i32 4, ptr %2, align 4
  %3 = getelementptr inbounds nuw i8, ptr %0, i64 176
  %4 = load ptr, ptr %3, align 8
  %5 = getelementptr inbounds nuw i8, ptr %4, i64 13
  %6 = load i8, ptr %5, align 1
  %7 = trunc i8 %6 to i1
  %8 = getelementptr inbounds nuw i8, ptr %0, i64 168
  %9 = load i32, ptr %8, align 8
  %.sink = select i1 %7, i32 %9, i32 0
  %10 = getelementptr inbounds nuw i8, ptr %0, i64 88
  store i32 %.sink, ptr %10, align 8
  ret void
}